; ModuleID = 'source-C-CXX/9/1057.c'
source_filename = "source-C-CXX/9/1057.c"
target datalayout = "e-m:e-p270:32:32-p271:32:32-p272:64:64-i64:64-f80:128-n8:16:32:64-S128"
target triple = "x86_64-pc-linux-gnu"

@t = dso_local local_unnamed_addr global i32 0, align 4
@.str = private unnamed_addr constant [3 x i8] c"%d\00", align 1
@n = dso_local global i32 0, align 4
@h = dso_local global [25 x i32] zeroinitializer, align 16
@r = dso_local local_unnamed_addr global [25 x [10000 x i32]] zeroinitializer, align 16

; Function Attrs: nofree nounwind sspstrong uwtable
define dso_local i32 @main() local_unnamed_addr #0 {
  %1 = tail call i32 (i8*, ...) @__isoc99_scanf(i8* getelementptr inbounds ([3 x i8], [3 x i8]* @.str, i64 0, i64 0), i32* nonnull @n)
  %2 = load i32, i32* @n, align 4, !tbaa !5
  %3 = icmp sgt i32 %2, 0
  br i1 %3, label %4, label %12

4:                                                ; preds = %0, %4
  %5 = phi i64 [ %8, %4 ], [ 0, %0 ]
  %6 = getelementptr inbounds [25 x i32], [25 x i32]* @h, i64 0, i64 %5
  %7 = tail call i32 (i8*, ...) @__isoc99_scanf(i8* getelementptr inbounds ([3 x i8], [3 x i8]* @.str, i64 0, i64 0), i32* nonnull %6)
  %8 = add nuw nsw i64 %5, 1
  %9 = load i32, i32* @n, align 4, !tbaa !5
  %10 = sext i32 %9 to i64
  %11 = icmp slt i64 %8, %10
  br i1 %11, label %4, label %12, !llvm.loop !9

12:                                               ; preds = %4, %0
  %13 = tail call i32 @lanjie(i32 0, i32 10000)
  %14 = tail call i32 (i8*, ...) @printf(i8* nonnull dereferenceable(1) getelementptr inbounds ([3 x i8], [3 x i8]* @.str, i64 0, i64 0), i32 %13)
  ret i32 0
}

; Function Attrs: nofree nounwind
declare noundef i32 @__isoc99_scanf(i8* nocapture noundef readonly, ...) local_unnamed_addr #1

; Function Attrs: nofree nounwind
declare noundef i32 @printf(i8* nocapture noundef readonly, ...) local_unnamed_addr #1

; Function Attrs: nofree nosync nounwind sspstrong uwtable
define dso_local i32 @lanjie(i32 %0, i32 %1) local_unnamed_addr #2 {
  %3 = sext i32 %0 to i64
  %4 = sext i32 %1 to i64
  %5 = getelementptr inbounds [25 x [10000 x i32]], [25 x [10000 x i32]]* @r, i64 0, i64 %3, i64 %4
  %6 = load i32, i32* %5, align 4, !tbaa !5
  %7 = icmp eq i32 %6, 0
  br i1 %7, label %8, label %30

8:                                                ; preds = %2
  %9 = load i32, i32* @n, align 4, !tbaa !5
  %10 = add nsw i32 %9, -1
  %11 = icmp eq i32 %10, %0
  %12 = getelementptr inbounds [25 x i32], [25 x i32]* @h, i64 0, i64 %3
  %13 = load i32, i32* %12, align 4, !tbaa !5
  %14 = icmp sgt i32 %13, %1
  br i1 %11, label %15, label %18

15:                                               ; preds = %8
  %16 = xor i1 %14, true
  %17 = zext i1 %16 to i32
  br label %28

18:                                               ; preds = %8
  %19 = add nsw i32 %0, 1
  br i1 %14, label %26, label %20

20:                                               ; preds = %18
  %21 = tail call i32 @lanjie(i32 %19, i32 %13)
  %22 = add nsw i32 %21, 1
  %23 = tail call i32 @lanjie(i32 %19, i32 %1)
  %24 = icmp slt i32 %21, %23
  %25 = select i1 %24, i32 %23, i32 %22
  br label %28

26:                                               ; preds = %18
  %27 = tail call i32 @lanjie(i32 %19, i32 %1)
  br label %28

28:                                               ; preds = %20, %26, %15
  %29 = phi i32 [ %17, %15 ], [ %25, %20 ], [ %27, %26 ]
  store i32 %29, i32* %5, align 4, !tbaa !5
  br label %30

30:                                               ; preds = %28, %2
  %31 = phi i32 [ %6, %2 ], [ %29, %28 ]
  ret i32 %31
}

; Function Attrs: mustprogress nofree norecurse nosync nounwind readnone sspstrong uwtable willreturn
define dso_local i32 @max(i32 %0, i32 %1) local_unnamed_addr #3 {
  %3 = icmp sgt i32 %0, %1
  %4 = select i1 %3, i32 %0, i32 %1
  ret i32 %4
}


!llvm.module.flags = !{!0, !1, !2, !3}
!llvm.ident = !{!4}

!0 = !{i32 1, !"wchar_size", i32 4}
!1 = !{i32 7, !"PIC Level", i32 2}
!2 = !{i32 7, !"PIE Level", i32 2}
!3 = !{i32 7, !"uwtable", i32 1}
!4 = !{!"clang version 13.0.0"}
!5 = !{!6, !6, i64 0}
!6 = !{!"int", !7, i64 0}
!7 = !{!"omnipotent char", !8, i64 0}
!8 = !{!"Simple C/C++ TBAA"}
!9 = distinct !{!9, !10}
!10 = !{!"llvm.loop.mustprogress"}
